; Function Attrs: mustprogress uwtable
define void @_ZN2cv4UMat6createEiiiNS_14UMatUsageFlagsE(ptr noundef nonnull align 8 dereferenceable(80) %0, i32 noundef %1, i32 noundef %2, i32 noundef %3, i32 noundef %4) local_unnamed_addr #4 align 2 {
  %6 = alloca [2 x i32], align 4
  call void @llvm.lifetime.start.p0(i64 8, ptr nonnull %6) #25
  store i32 %1, ptr %6, align 4, !tbaa !28
  %7 = getelementptr inbounds nuw i8, ptr %6, i64 4
  store i32 %2, ptr %7, align 4, !tbaa !28
  call void @_ZN2cv4UMat6createEiPKiiNS_14UMatUsageFlagsE(ptr noundef nonnull align 8 dereferenceable(80) %0, i32 noundef 2, ptr noundef nonnull %6, i32 noundef %3, i32 noundef %4)
  call void @llvm.lifetime.end.p0(i64 8, ptr nonnull %6) #25
  ret void
}